target datalayout = "e-m:e-p270:32:32-p271:32:32-p272:64:64-i64:64-i128:128-f80:128-n8:16:32:64-S128"
target triple = "x86_64-pc-linux-gnu"

%class.dtNodeQueue = type { ptr, i32, i32 }

@.str.1 = private unnamed_addr constant [140 x i8] c"generated/home/dtcxzyw/WorkSpace/Projects/compilers/llvm-opt-benchmark/bench/recastnavigation/recastnavigation/Detour/Source/DetourNode.cpp\00", align 1
@.str.6 = private unnamed_addr constant [15 x i8] c"m_capacity > 0\00", align 1
@.str.7 = private unnamed_addr constant [7 x i8] c"m_heap\00", align 1

; Function Attrs: mustprogress uwtable
define void @_ZN11dtNodeQueueC2Ei(ptr noundef nonnull align 8 dereferenceable(16) %0, i32 noundef %1) unnamed_addr #0 align 2 {
  %3 = alloca ptr, align 8
  %4 = alloca i32, align 4
  %5 = alloca ptr, align 8
  %6 = alloca ptr, align 8
  store ptr %0, ptr %3, align 8
  store i32 %1, ptr %4, align 4
  %7 = load ptr, ptr %3, align 8
  %8 = getelementptr inbounds %class.dtNodeQueue, ptr %7, i32 0, i32 0
  store ptr null, ptr %8, align 8
  %9 = getelementptr inbounds %class.dtNodeQueue, ptr %7, i32 0, i32 1
  %10 = load i32, ptr %4, align 4
  store i32 %10, ptr %9, align 8
  %11 = getelementptr inbounds %class.dtNodeQueue, ptr %7, i32 0, i32 2
  store i32 0, ptr %11, align 4
  %12 = call noundef ptr @_Z21dtAssertFailGetCustomv()
  store ptr %12, ptr %5, align 8
  %13 = load ptr, ptr %5, align 8
  %14 = icmp eq ptr %13, null
  br i1 %14, label %15, label %16

15:                                               ; preds = %2
  br label %23

16:                                               ; preds = %2
  %17 = getelementptr inbounds %class.dtNodeQueue, ptr %7, i32 0, i32 1
  %18 = load i32, ptr %17, align 8
  %19 = icmp sgt i32 %18, 0
  br i1 %19, label %22, label %20

20:                                               ; preds = %16
  %21 = load ptr, ptr %5, align 8
  call void %21(ptr noundef @.str.6, ptr noundef @.str.1, i32 noundef 161)
  br label %22

22:                                               ; preds = %20, %16
  br label %23

23:                                               ; preds = %22, %15
  %24 = getelementptr inbounds %class.dtNodeQueue, ptr %7, i32 0, i32 1
  %25 = load i32, ptr %24, align 8
  %26 = add nsw i32 %25, 1
  %27 = sext i32 %26 to i64
  %28 = mul i64 8, %27
  %29 = call noundef ptr @_Z7dtAllocm11dtAllocHint(i64 noundef %28, i32 noundef 0)
  %30 = getelementptr inbounds %class.dtNodeQueue, ptr %7, i32 0, i32 0
  store ptr %29, ptr %30, align 8
  %31 = call noundef ptr @_Z21dtAssertFailGetCustomv()
  store ptr %31, ptr %6, align 8
  %32 = load ptr, ptr %6, align 8
  %33 = icmp eq ptr %32, null
  br i1 %33, label %34, label %35

34:                                               ; preds = %23
  br label %42

35:                                               ; preds = %23
  %36 = getelementptr inbounds %class.dtNodeQueue, ptr %7, i32 0, i32 0
  %37 = load ptr, ptr %36, align 8
  %38 = icmp ne ptr %37, null
  br i1 %38, label %41, label %39

39:                                               ; preds = %35
  %40 = load ptr, ptr %6, align 8
  call void %40(ptr noundef @.str.7, ptr noundef @.str.1, i32 noundef 164)
  br label %41

41:                                               ; preds = %39, %35
  br label %42

42:                                               ; preds = %41, %34
  ret void
}