; Function Attrs: mustprogress uwtable
define void @_ZN11dtNodeQueueC2Ei(ptr noundef nonnull align 8 captures(none) dereferenceable(16) initializes((0, 16)) %0, i32 noundef %1) unnamed_addr #0 align 2 {
  store ptr null, ptr %0, align 8
  %3 = getelementptr inbounds nuw i8, ptr %0, i64 8
  store i32 %1, ptr %3, align 8
  %4 = getelementptr inbounds nuw i8, ptr %0, i64 12
  store i32 0, ptr %4, align 4
  %5 = tail call noundef ptr @_Z21dtAssertFailGetCustomv()
  %6 = icmp eq ptr %5, null
  %7 = load i32, ptr %3, align 8
  %8 = icmp sgt i32 %7, 0
  %or.cond = select i1 %6, i1 true, i1 %8
  br i1 %or.cond, label %10, label %9

9:                                                ; preds = %2
  tail call void %5(ptr noundef nonnull @.str.6, ptr noundef nonnull @.str.1, i32 noundef 161)
  %.pre = load i32, ptr %3, align 8
  br label %10

10:                                               ; preds = %9, %2
  %11 = phi i32 [ %.pre, %9 ], [ %7, %2 ]
  %12 = add nsw i32 %11, 1
  %13 = sext i32 %12 to i64
  %14 = shl nsw i64 %13, 3
  %15 = tail call noundef ptr @_Z7dtAllocm11dtAllocHint(i64 noundef %14, i32 noundef 0)
  store ptr %15, ptr %0, align 8
  %16 = tail call noundef ptr @_Z21dtAssertFailGetCustomv()
  %17 = icmp ne ptr %16, null
  %18 = load ptr, ptr %0, align 8
  %.not = icmp eq ptr %18, null
  %or.cond7 = select i1 %17, i1 %.not, i1 false
  br i1 %or.cond7, label %19, label %20

19:                                               ; preds = %10
  tail call void %16(ptr noundef nonnull @.str.7, ptr noundef nonnull @.str.1, i32 noundef 164)
  br label %20

20:                                               ; preds = %19, %10
  ret void
}